; Function Attrs: nofree nounwind uwtable
define void @Ivy_FraigPrintSimClasses(ptr noundef readonly captures(none) %0) local_unnamed_addr #15 {
  %2 = getelementptr inbounds nuw i8, ptr %0, i64 88
  %.04 = load ptr, ptr %2, align 8, !tbaa !145
  %.not5 = icmp eq ptr %.04, null
  br i1 %.not5, label %._crit_edge, label %.lr.ph.i.preheader

.lr.ph.i.preheader:                               ; preds = %1, %Ivy_FraigCountClassNodes.exit
  %.06 = phi ptr [ %.0, %Ivy_FraigCountClassNodes.exit ], [ %.04, %1 ]
  br label %.lr.ph.i

.lr.ph.i:                                         ; preds = %.lr.ph.i.preheader, %.lr.ph.i
  %.07.i = phi i32 [ %3, %.lr.ph.i ], [ 0, %.lr.ph.i.preheader ]
  %.046.i = phi ptr [ %.04.val.i, %.lr.ph.i ], [ %.06, %.lr.ph.i.preheader ]
  %3 = add nuw nsw i32 %.07.i, 1
  %4 = getelementptr i8, ptr %.046.i, i64 48
  %.04.val.i = load ptr, ptr %4, align 8, !tbaa !94
  %.not.i = icmp eq ptr %.04.val.i, null
  br i1 %.not.i, label %Ivy_FraigCountClassNodes.exit, label %.lr.ph.i, !llvm.loop !122

Ivy_FraigCountClassNodes.exit:                    ; preds = %.lr.ph.i
  %5 = tail call i32 (ptr, ...) @printf(ptr noundef nonnull dereferenceable(1) @.str.11, i32 noundef %3)
  %6 = getelementptr i8, ptr %.06, i64 56
  %.0 = load ptr, ptr %6, align 8, !tbaa !145
  %.not = icmp eq ptr %.0, null
  br i1 %.not, label %._crit_edge, label %.lr.ph.i.preheader, !llvm.loop !199

._crit_edge:                                      ; preds = %Ivy_FraigCountClassNodes.exit, %1
  ret void
}